target datalayout = "e-m:e-p270:32:32-p271:32:32-p272:64:64-i64:64-i128:128-f80:128-n8:16:32:64-S128"
target triple = "x86_64-pc-linux-gnu"

@.str.9 = private unnamed_addr constant [8 x i8] c"__index\00", align 1
@.str.10 = private unnamed_addr constant [11 x i8] c"__newindex\00", align 1
@.str.11 = private unnamed_addr constant [6 x i8] c"__len\00", align 1

; Function Attrs: nounwind uwtable
define internal i32 @checkfield(ptr noundef %0, ptr noundef %1, i32 noundef %2) #0 {
  %4 = alloca ptr, align 8
  %5 = alloca ptr, align 8
  %6 = alloca i32, align 4
  store ptr %0, ptr %4, align 8, !tbaa !4
  store ptr %1, ptr %5, align 8, !tbaa !11
  store i32 %2, ptr %6, align 4, !tbaa !15
  %7 = load ptr, ptr %4, align 8, !tbaa !4
  %8 = load ptr, ptr %5, align 8, !tbaa !11
  %9 = call ptr @lua_pushstring(ptr noundef %7, ptr noundef %8)
  %10 = load ptr, ptr %4, align 8, !tbaa !4
  %11 = load i32, ptr %6, align 4, !tbaa !15
  %12 = sub nsw i32 0, %11
  %13 = call i32 @lua_rawget(ptr noundef %10, i32 noundef %12)
  %14 = icmp ne i32 %13, 0
  %15 = zext i1 %14 to i32
  ret i32 %15
}

; Function Attrs: nounwind uwtable
define internal void @checktab(ptr noundef %0, i32 noundef %1, i32 noundef %2) #0 {
  %4 = alloca ptr, align 8
  %5 = alloca i32, align 4
  %6 = alloca i32, align 4
  %7 = alloca i32, align 4
  store ptr %0, ptr %4, align 8, !tbaa !4
  store i32 %1, ptr %5, align 4, !tbaa !15
  store i32 %2, ptr %6, align 4, !tbaa !15
  %8 = load ptr, ptr %4, align 8, !tbaa !4
  %9 = load i32, ptr %5, align 4, !tbaa !15
  %10 = call i32 @lua_type(ptr noundef %8, i32 noundef %9)
  %11 = icmp ne i32 %10, 5
  br i1 %11, label %12, label %56

12:                                               ; preds = %3
  call void @llvm.lifetime.start.p0(i64 4, ptr %7) #4
  store i32 1, ptr %7, align 4, !tbaa !15
  %13 = load ptr, ptr %4, align 8, !tbaa !4
  %14 = load i32, ptr %5, align 4, !tbaa !15
  %15 = call i32 @lua_getmetatable(ptr noundef %13, i32 noundef %14)
  %16 = icmp ne i32 %15, 0
  br i1 %16, label %17, label %52

17:                                               ; preds = %12
  %18 = load i32, ptr %6, align 4, !tbaa !15
  %19 = and i32 %18, 1
  %20 = icmp ne i32 %19, 0
  br i1 %20, label %21, label %27

21:                                               ; preds = %17
  %22 = load ptr, ptr %4, align 8, !tbaa !4
  %23 = load i32, ptr %7, align 4, !tbaa !15
  %24 = add nsw i32 %23, 1
  store i32 %24, ptr %7, align 4, !tbaa !15
  %25 = call i32 @checkfield(ptr noundef %22, ptr noundef @.str.9, i32 noundef %24)
  %26 = icmp ne i32 %25, 0
  br i1 %26, label %27, label %52

27:                                               ; preds = %21, %17
  %28 = load i32, ptr %6, align 4, !tbaa !15
  %29 = and i32 %28, 2
  %30 = icmp ne i32 %29, 0
  br i1 %30, label %31, label %37

31:                                               ; preds = %27
  %32 = load ptr, ptr %4, align 8, !tbaa !4
  %33 = load i32, ptr %7, align 4, !tbaa !15
  %34 = add nsw i32 %33, 1
  store i32 %34, ptr %7, align 4, !tbaa !15
  %35 = call i32 @checkfield(ptr noundef %32, ptr noundef @.str.10, i32 noundef %34)
  %36 = icmp ne i32 %35, 0
  br i1 %36, label %37, label %52

37:                                               ; preds = %31, %27
  %38 = load i32, ptr %6, align 4, !tbaa !15
  %39 = and i32 %38, 4
  %40 = icmp ne i32 %39, 0
  br i1 %40, label %41, label %47

41:                                               ; preds = %37
  %42 = load ptr, ptr %4, align 8, !tbaa !4
  %43 = load i32, ptr %7, align 4, !tbaa !15
  %44 = add nsw i32 %43, 1
  store i32 %44, ptr %7, align 4, !tbaa !15
  %45 = call i32 @checkfield(ptr noundef %42, ptr noundef @.str.11, i32 noundef %44)
  %46 = icmp ne i32 %45, 0
  br i1 %46, label %47, label %52

47:                                               ; preds = %41, %37
  %48 = load ptr, ptr %4, align 8, !tbaa !4
  %49 = load i32, ptr %7, align 4, !tbaa !15
  %50 = sub nsw i32 0, %49
  %51 = sub nsw i32 %50, 1
  call void @lua_settop(ptr noundef %48, i32 noundef %51)
  br label %55

52:                                               ; preds = %41, %31, %21, %12
  %53 = load ptr, ptr %4, align 8, !tbaa !4
  %54 = load i32, ptr %5, align 4, !tbaa !15
  call void @luaL_checktype(ptr noundef %53, i32 noundef %54, i32 noundef 5)
  br label %55

55:                                               ; preds = %52, %47
  call void @llvm.lifetime.end.p0(i64 4, ptr %7) #4
  br label %56

56:                                               ; preds = %55, %3
  ret void
}