; Function Attrs: nounwind uwtable
define internal fastcc void @checktab(ptr noundef %0, i32 noundef range(i32 1, 6) %1, i32 noundef range(i32 1, 8) %2) unnamed_addr #0 {
  %4 = tail call i32 @lua_type(ptr noundef %0, i32 noundef %1) #3
  %.not = icmp eq i32 %4, 5
  br i1 %.not, label %28, label %5

5:                                                ; preds = %3
  %6 = tail call i32 @lua_getmetatable(ptr noundef %0, i32 noundef %1) #3
  %.not16 = icmp eq i32 %6, 0
  br i1 %.not16, label %27, label %7

7:                                                ; preds = %5
  %8 = and i32 %2, 1
  %.not17 = icmp eq i32 %8, 0
  br i1 %.not17, label %12, label %9

9:                                                ; preds = %7
  %10 = tail call ptr @lua_pushstring(ptr noundef %0, ptr noundef nonnull @.str.9) #3
  %11 = tail call i32 @lua_rawget(ptr noundef %0, i32 noundef -2) #3
  %.not23 = icmp eq i32 %11, 0
  br i1 %.not23, label %27, label %12

12:                                               ; preds = %9, %7
  %.0 = phi i32 [ 2, %9 ], [ 1, %7 ]
  %13 = and i32 %2, 2
  %.not19 = icmp eq i32 %13, 0
  br i1 %.not19, label %19, label %14

14:                                               ; preds = %12
  %15 = add nuw nsw i32 %.0, 1
  %16 = tail call ptr @lua_pushstring(ptr noundef %0, ptr noundef nonnull @.str.10) #3
  %17 = xor i32 %.0, -1
  %18 = tail call i32 @lua_rawget(ptr noundef %0, i32 noundef %17) #3
  %.not24 = icmp eq i32 %18, 0
  br i1 %.not24, label %27, label %19

19:                                               ; preds = %14, %12
  %.1 = phi i32 [ %15, %14 ], [ %.0, %12 ]
  %.not21 = icmp samesign ult i32 %2, 4
  br i1 %.not21, label %25, label %20

20:                                               ; preds = %19
  %21 = add nuw nsw i32 %.1, 1
  %22 = tail call ptr @lua_pushstring(ptr noundef %0, ptr noundef nonnull @.str.11) #3
  %23 = xor i32 %.1, -1
  %24 = tail call i32 @lua_rawget(ptr noundef %0, i32 noundef %23) #3
  %.not25 = icmp eq i32 %24, 0
  br i1 %.not25, label %27, label %25

25:                                               ; preds = %20, %19
  %.2 = phi i32 [ %21, %20 ], [ %.1, %19 ]
  %26 = xor i32 %.2, -1
  tail call void @lua_settop(ptr noundef %0, i32 noundef %26) #3
  br label %28

27:                                               ; preds = %20, %14, %9, %5
  tail call void @luaL_checktype(ptr noundef %0, i32 noundef %1, i32 noundef 5) #3
  br label %28

28:                                               ; preds = %25, %27, %3
  ret void
}